; Function Attrs: nounwind uwtable
define ptr @l_String_utf16Length(ptr noundef %0) local_unnamed_addr #1 {
  %2 = getelementptr i8, ptr %0, i64 8
  %.val = load i64, ptr %2, align 8, !tbaa !12
  %3 = shl i64 %.val, 1
  %4 = add i64 %3, -1
  %5 = inttoptr i64 %4 to ptr
  %6 = tail call ptr @l_String_foldrAux___at_String_utf16Length___spec__1(ptr noundef nonnull inttoptr (i64 1 to ptr), ptr noundef %0, ptr noundef nonnull %5, ptr noundef nonnull inttoptr (i64 1 to ptr))
  ret ptr %6
}